target datalayout = "e-m:e-p270:32:32-p271:32:32-p272:64:64-i64:64-i128:128-f80:128-n8:16:32:64-S128"
target triple = "x86_64-pc-linux-gnu"

; Function Attrs: inlinehint nounwind uwtable
define internal ptr @ossl_check_ASN1_UTF8STRING_freefunc_type(ptr noundef %0) #5 {
  %2 = alloca ptr, align 8
  store ptr %0, ptr %2, align 8, !tbaa !80
  %3 = load ptr, ptr %2, align 8, !tbaa !80
  ret ptr %3
}

; Function Attrs: inlinehint nounwind uwtable
define internal ptr @ossl_check_ASN1_UTF8STRING_type(ptr noundef %0) #5 {
  %2 = alloca ptr, align 8
  store ptr %0, ptr %2, align 8, !tbaa !86
  %3 = load ptr, ptr %2, align 8, !tbaa !86
  ret ptr %3
}

; Function Attrs: inlinehint nounwind uwtable
define internal ptr @ossl_check_ASN1_UTF8STRING_sk_type(ptr noundef %0) #5 {
  %2 = alloca ptr, align 8
  store ptr %0, ptr %2, align 8, !tbaa !109
  %3 = load ptr, ptr %2, align 8, !tbaa !109
  ret ptr %3
}

; Function Attrs: inlinehint nounwind uwtable
define internal ptr @ossl_check_ASN1_UTF8STRING_compfunc_type(ptr noundef %0) #5 {
  %2 = alloca ptr, align 8
  store ptr %0, ptr %2, align 8, !tbaa !80
  %3 = load ptr, ptr %2, align 8, !tbaa !80
  ret ptr %3
}

; Function Attrs: nounwind uwtable
define internal i32 @add_certProfile(ptr noundef %0, ptr noundef %1) #0 {
  %3 = alloca i32, align 4
  %4 = alloca ptr, align 8
  %5 = alloca ptr, align 8
  %6 = alloca ptr, align 8
  %7 = alloca ptr, align 8
  %8 = alloca ptr, align 8
  %9 = alloca i32, align 4
  store ptr %0, ptr %4, align 8, !tbaa !17
  store ptr %1, ptr %5, align 8, !tbaa !11
  call void @llvm.lifetime.start.p0(i64 8, ptr %6) #11
  store ptr null, ptr %6, align 8, !tbaa !75
  call void @llvm.lifetime.start.p0(i64 8, ptr %7) #11
  call void @llvm.lifetime.start.p0(i64 8, ptr %8) #11
  %10 = load ptr, ptr %4, align 8, !tbaa !17
  %11 = icmp eq ptr %10, null
  br i1 %11, label %15, label %12

12:                                               ; preds = %2
  %13 = load ptr, ptr %5, align 8, !tbaa !11
  %14 = icmp eq ptr %13, null
  br i1 %14, label %15, label %16

15:                                               ; preds = %12, %2
  store i32 0, ptr %3, align 4
  store i32 1, ptr %9, align 4
  br label %57

16:                                               ; preds = %12
  %17 = call ptr @ossl_check_ASN1_UTF8STRING_compfunc_type(ptr noundef null)
  %18 = call ptr @OPENSSL_sk_new_reserve(ptr noundef %17, i32 noundef 1)
  store ptr %18, ptr %7, align 8, !tbaa !109
  %19 = icmp eq ptr %18, null
  br i1 %19, label %20, label %21

20:                                               ; preds = %16
  store i32 0, ptr %3, align 4
  store i32 1, ptr %9, align 4
  br label %57

21:                                               ; preds = %16
  %22 = call ptr @ASN1_UTF8STRING_new()
  store ptr %22, ptr %8, align 8, !tbaa !86
  %23 = icmp eq ptr %22, null
  br i1 %23, label %24, label %25

24:                                               ; preds = %21
  br label %53

25:                                               ; preds = %21
  %26 = load ptr, ptr %8, align 8, !tbaa !86
  %27 = load ptr, ptr %5, align 8, !tbaa !11
  %28 = load ptr, ptr %5, align 8, !tbaa !11
  %29 = call i64 @strlen(ptr noundef %28) #12
  %30 = trunc i64 %29 to i32
  %31 = call i32 @ASN1_STRING_set(ptr noundef %26, ptr noundef %27, i32 noundef %30)
  %32 = icmp ne i32 %31, 0
  br i1 %32, label %35, label %33

33:                                               ; preds = %25
  %34 = load ptr, ptr %8, align 8, !tbaa !86
  call void @ASN1_STRING_free(ptr noundef %34)
  br label %53

35:                                               ; preds = %25
  %36 = load ptr, ptr %7, align 8, !tbaa !109
  %37 = call ptr @ossl_check_ASN1_UTF8STRING_sk_type(ptr noundef %36)
  %38 = load ptr, ptr %8, align 8, !tbaa !86
  %39 = call ptr @ossl_check_ASN1_UTF8STRING_type(ptr noundef %38)
  %40 = call i32 @OPENSSL_sk_push(ptr noundef %37, ptr noundef %39)
  %41 = load ptr, ptr %7, align 8, !tbaa !109
  %42 = call ptr @OSSL_CMP_ITAV_new0_certProfile(ptr noundef %41)
  store ptr %42, ptr %6, align 8, !tbaa !75
  %43 = icmp eq ptr %42, null
  br i1 %43, label %44, label %45

44:                                               ; preds = %35
  br label %53

45:                                               ; preds = %35
  %46 = load ptr, ptr %4, align 8, !tbaa !17
  %47 = load ptr, ptr %6, align 8, !tbaa !75
  %48 = call i32 @OSSL_CMP_CTX_push0_geninfo_ITAV(ptr noundef %46, ptr noundef %47)
  %49 = icmp ne i32 %48, 0
  br i1 %49, label %50, label %51

50:                                               ; preds = %45
  store i32 1, ptr %3, align 4
  store i32 1, ptr %9, align 4
  br label %57

51:                                               ; preds = %45
  %52 = load ptr, ptr %6, align 8, !tbaa !75
  call void @OSSL_CMP_ITAV_free(ptr noundef %52)
  store i32 0, ptr %3, align 4
  store i32 1, ptr %9, align 4
  br label %57

53:                                               ; preds = %44, %33, %24
  %54 = load ptr, ptr %7, align 8, !tbaa !109
  %55 = call ptr @ossl_check_ASN1_UTF8STRING_sk_type(ptr noundef %54)
  %56 = call ptr @ossl_check_ASN1_UTF8STRING_freefunc_type(ptr noundef @ASN1_UTF8STRING_free)
  call void @OPENSSL_sk_pop_free(ptr noundef %55, ptr noundef %56)
  store i32 0, ptr %3, align 4
  store i32 1, ptr %9, align 4
  br label %57

57:                                               ; preds = %53, %51, %50, %20, %15
  call void @llvm.lifetime.end.p0(i64 8, ptr %8) #11
  call void @llvm.lifetime.end.p0(i64 8, ptr %7) #11
  call void @llvm.lifetime.end.p0(i64 8, ptr %6) #11
  %58 = load i32, ptr %3, align 4
  ret i32 %58
}