; Function Attrs: nounwind uwtable
define internal fastcc range(i32 0, 2) i32 @add_certProfile(ptr noundef %0, ptr noundef nonnull %1) unnamed_addr #0 {
  %3 = icmp eq ptr %0, null
  br i1 %3, label %23, label %4

4:                                                ; preds = %2
  %5 = tail call ptr @OPENSSL_sk_new_reserve(ptr noundef null, i32 noundef 1) #12
  %6 = icmp eq ptr %5, null
  br i1 %6, label %23, label %7

7:                                                ; preds = %4
  %8 = tail call ptr @ASN1_UTF8STRING_new() #12
  %9 = icmp eq ptr %8, null
  br i1 %9, label %22, label %10

10:                                               ; preds = %7
  %11 = tail call i64 @strlen(ptr noundef nonnull dereferenceable(1) %1) #13
  %12 = trunc i64 %11 to i32
  %13 = tail call i32 @ASN1_STRING_set(ptr noundef nonnull %8, ptr noundef nonnull %1, i32 noundef %12) #12
  %.not = icmp eq i32 %13, 0
  br i1 %.not, label %14, label %15

14:                                               ; preds = %10
  tail call void @ASN1_STRING_free(ptr noundef nonnull %8) #12
  br label %22

15:                                               ; preds = %10
  %16 = tail call i32 @OPENSSL_sk_push(ptr noundef nonnull %5, ptr noundef nonnull %8) #12
  %17 = tail call ptr @OSSL_CMP_ITAV_new0_certProfile(ptr noundef nonnull %5) #12
  %18 = icmp eq ptr %17, null
  br i1 %18, label %22, label %19

19:                                               ; preds = %15
  %20 = tail call i32 @OSSL_CMP_CTX_push0_geninfo_ITAV(ptr noundef nonnull %0, ptr noundef nonnull %17) #12
  %.not19 = icmp eq i32 %20, 0
  br i1 %.not19, label %21, label %23

21:                                               ; preds = %19
  tail call void @OSSL_CMP_ITAV_free(ptr noundef nonnull %17) #12
  br label %23

22:                                               ; preds = %15, %7, %14
  tail call void @OPENSSL_sk_pop_free(ptr noundef nonnull %5, ptr noundef nonnull @ASN1_UTF8STRING_free) #12
  br label %23

23:                                               ; preds = %19, %4, %2, %22, %21
  %.0 = phi i32 [ 0, %22 ], [ 0, %21 ], [ 0, %2 ], [ 0, %4 ], [ 1, %19 ]
  ret i32 %.0
}